; Function Attrs: nounwind uwtable
define void @av_packet_unref(ptr noundef %0) local_unnamed_addr #3 {
  %2 = getelementptr inbounds nuw i8, ptr %0, i64 56
  %3 = load i32, ptr %2, align 8, !tbaa !22
  %4 = icmp sgt i32 %3, 0
  br i1 %4, label %.lr.ph.i, label %av_packet_free_side_data.exit

.lr.ph.i:                                         ; preds = %1
  %5 = getelementptr inbounds nuw i8, ptr %0, i64 48
  br label %6

6:                                                ; preds = %6, %.lr.ph.i
  %indvars.iv.i = phi i64 [ 0, %.lr.ph.i ], [ %indvars.iv.next.i, %6 ]
  %7 = load ptr, ptr %5, align 8, !tbaa !21
  %8 = getelementptr inbounds nuw %struct.AVPacketSideData, ptr %7, i64 %indvars.iv.i
  tail call void @av_freep(ptr noundef %8) #16
  %indvars.iv.next.i = add nuw nsw i64 %indvars.iv.i, 1
  %9 = load i32, ptr %2, align 8, !tbaa !22
  %10 = sext i32 %9 to i64
  %11 = icmp slt i64 %indvars.iv.next.i, %10
  br i1 %11, label %6, label %av_packet_free_side_data.exit, !llvm.loop !25

av_packet_free_side_data.exit:                    ; preds = %6, %1
  %12 = getelementptr inbounds nuw i8, ptr %0, i64 48
  tail call void @av_freep(ptr noundef nonnull %12) #16
  store i32 0, ptr %2, align 8, !tbaa !22
  %13 = getelementptr inbounds nuw i8, ptr %0, i64 88
  tail call void @av_buffer_unref(ptr noundef nonnull %13) #16
  tail call void @av_buffer_unref(ptr noundef nonnull %0) #16
  tail call void @llvm.memset.p0.i64(ptr noundef nonnull align 8 dereferenceable(104) %0, i8 0, i64 96, i1 false)
  %14 = getelementptr inbounds nuw i8, ptr %0, i64 8
  store i64 -9223372036854775808, ptr %14, align 8, !tbaa !4
  %15 = getelementptr inbounds nuw i8, ptr %0, i64 16
  store i64 -9223372036854775808, ptr %15, align 8, !tbaa !15
  %16 = getelementptr inbounds nuw i8, ptr %0, i64 72
  store i64 -1, ptr %16, align 8, !tbaa !16
  %17 = getelementptr inbounds nuw i8, ptr %0, i64 96
  store i64 4294967296, ptr %17, align 8
  ret void
}